; ModuleID = '14/1473.c'
source_filename = "14/1473.c"
target datalayout = "e-m:e-p270:32:32-p271:32:32-p272:64:64-i64:64-f80:128-n8:16:32:64-S128"
target triple = "x86_64-pc-linux-gnu"

%struct.student = type { i64, i32, i32 }

@.str = private unnamed_addr constant [4 x i8] c"%ld\00", align 1
@.str.1 = private unnamed_addr constant [7 x i8] c"%d%d%d\00", align 1
@.str.2 = private unnamed_addr constant [8 x i8] c"%ld %d\0A\00", align 1

; Function Attrs: noinline nounwind uwtable
define dso_local void @main() #0 {
  %1 = alloca [100001 x %struct.student], align 16
  %2 = alloca i32, align 4
  %3 = alloca i32, align 4
  %4 = alloca i32, align 4
  %5 = alloca i32, align 4
  %6 = alloca i64, align 8
  %7 = alloca [100001 x i32], align 16
  store i32 0, i32* %5, align 4
  %8 = call i32 (i8*, ...) @__isoc99_scanf(i8* getelementptr inbounds ([4 x i8], [4 x i8]* @.str, i64 0, i64 0), i64* %6)
  store i32 0, i32* %2, align 4
  br label %9

9:                                                ; preds = %28, %0
  %10 = load i32, i32* %2, align 4
  %11 = sext i32 %10 to i64
  %12 = load i64, i64* %6, align 8
  %13 = icmp slt i64 %11, %12
  br i1 %13, label %14, label %31

14:                                               ; preds = %9
  %15 = load i32, i32* %2, align 4
  %16 = sext i32 %15 to i64
  %17 = getelementptr inbounds [100001 x %struct.student], [100001 x %struct.student]* %1, i64 0, i64 %16
  %18 = getelementptr inbounds %struct.student, %struct.student* %17, i32 0, i32 0
  %19 = load i32, i32* %2, align 4
  %20 = sext i32 %19 to i64
  %21 = getelementptr inbounds [100001 x %struct.student], [100001 x %struct.student]* %1, i64 0, i64 %20
  %22 = getelementptr inbounds %struct.student, %struct.student* %21, i32 0, i32 1
  %23 = load i32, i32* %2, align 4
  %24 = sext i32 %23 to i64
  %25 = getelementptr inbounds [100001 x %struct.student], [100001 x %struct.student]* %1, i64 0, i64 %24
  %26 = getelementptr inbounds %struct.student, %struct.student* %25, i32 0, i32 2
  %27 = call i32 (i8*, ...) @__isoc99_scanf(i8* getelementptr inbounds ([7 x i8], [7 x i8]* @.str.1, i64 0, i64 0), i64* %18, i32* %22, i32* %26)
  br label %28

28:                                               ; preds = %14
  %29 = load i32, i32* %2, align 4
  %30 = add nsw i32 %29, 1
  store i32 %30, i32* %2, align 4
  br label %9

31:                                               ; preds = %9
  store i32 0, i32* %2, align 4
  br label %32

32:                                               ; preds = %52, %31
  %33 = load i32, i32* %2, align 4
  %34 = sext i32 %33 to i64
  %35 = load i64, i64* %6, align 8
  %36 = icmp slt i64 %34, %35
  br i1 %36, label %37, label %55

37:                                               ; preds = %32
  %38 = load i32, i32* %2, align 4
  %39 = sext i32 %38 to i64
  %40 = getelementptr inbounds [100001 x %struct.student], [100001 x %struct.student]* %1, i64 0, i64 %39
  %41 = getelementptr inbounds %struct.student, %struct.student* %40, i32 0, i32 1
  %42 = load i32, i32* %41, align 8
  %43 = load i32, i32* %2, align 4
  %44 = sext i32 %43 to i64
  %45 = getelementptr inbounds [100001 x %struct.student], [100001 x %struct.student]* %1, i64 0, i64 %44
  %46 = getelementptr inbounds %struct.student, %struct.student* %45, i32 0, i32 2
  %47 = load i32, i32* %46, align 4
  %48 = add nsw i32 %42, %47
  %49 = load i32, i32* %2, align 4
  %50 = sext i32 %49 to i64
  %51 = getelementptr inbounds [100001 x i32], [100001 x i32]* %7, i64 0, i64 %50
  store i32 %48, i32* %51, align 4
  br label %52

52:                                               ; preds = %37
  %53 = load i32, i32* %2, align 4
  %54 = add nsw i32 %53, 1
  store i32 %54, i32* %2, align 4
  br label %32

55:                                               ; preds = %32
  br label %56

56:                                               ; preds = %99, %55
  %57 = getelementptr inbounds [100001 x i32], [100001 x i32]* %7, i64 0, i64 0
  %58 = load i32, i32* %57, align 16
  store i32 %58, i32* %3, align 4
  store i32 0, i32* %4, align 4
  store i32 1, i32* %2, align 4
  br label %59

59:                                               ; preds = %78, %56
  %60 = load i32, i32* %2, align 4
  %61 = sext i32 %60 to i64
  %62 = load i64, i64* %6, align 8
  %63 = icmp slt i64 %61, %62
  br i1 %63, label %64, label %81

64:                                               ; preds = %59
  %65 = load i32, i32* %2, align 4
  %66 = sext i32 %65 to i64
  %67 = getelementptr inbounds [100001 x i32], [100001 x i32]* %7, i64 0, i64 %66
  %68 = load i32, i32* %67, align 4
  %69 = load i32, i32* %3, align 4
  %70 = icmp sgt i32 %68, %69
  br i1 %70, label %71, label %77

71:                                               ; preds = %64
  %72 = load i32, i32* %2, align 4
  %73 = sext i32 %72 to i64
  %74 = getelementptr inbounds [100001 x i32], [100001 x i32]* %7, i64 0, i64 %73
  %75 = load i32, i32* %74, align 4
  store i32 %75, i32* %3, align 4
  %76 = load i32, i32* %2, align 4
  store i32 %76, i32* %4, align 4
  br label %77

77:                                               ; preds = %71, %64
  br label %78

78:                                               ; preds = %77
  %79 = load i32, i32* %2, align 4
  %80 = add nsw i32 %79, 1
  store i32 %80, i32* %2, align 4
  br label %59

81:                                               ; preds = %59
  %82 = load i32, i32* %4, align 4
  %83 = sext i32 %82 to i64
  %84 = getelementptr inbounds [100001 x %struct.student], [100001 x %struct.student]* %1, i64 0, i64 %83
  %85 = getelementptr inbounds %struct.student, %struct.student* %84, i32 0, i32 0
  %86 = load i64, i64* %85, align 16
  %87 = load i32, i32* %4, align 4
  %88 = sext i32 %87 to i64
  %89 = getelementptr inbounds [100001 x i32], [100001 x i32]* %7, i64 0, i64 %88
  %90 = load i32, i32* %89, align 4
  %91 = call i32 (i8*, ...) @printf(i8* getelementptr inbounds ([8 x i8], [8 x i8]* @.str.2, i64 0, i64 0), i64 %86, i32 %90)
  %92 = load i32, i32* %5, align 4
  %93 = add nsw i32 %92, 1
  store i32 %93, i32* %5, align 4
  %94 = load i32, i32* %4, align 4
  %95 = sext i32 %94 to i64
  %96 = getelementptr inbounds [100001 x i32], [100001 x i32]* %7, i64 0, i64 %95
  store i32 0, i32* %96, align 4
  %97 = load i32, i32* %5, align 4
  %98 = icmp slt i32 %97, 3
  br i1 %98, label %99, label %100

99:                                               ; preds = %81
  br label %56

100:                                              ; preds = %81
  ret void
}

declare dso_local i32 @__isoc99_scanf(i8*, ...) #1

declare dso_local i32 @printf(i8*, ...) #1


!llvm.module.flags = !{!0}
!llvm.ident = !{!1}

!0 = !{i32 1, !"wchar_size", i32 4}
!1 = !{!"clang version 10.0.0-4ubuntu1 "}
